; Function Attrs: mustprogress uwtable
define hidden noundef double @_ZN10sls_engine23incremental_score_pruneEP9func_declRK3mpz(ptr noundef nonnull align 8 dereferenceable(1496) %0, ptr noundef %1, ptr noundef nonnull align 8 dereferenceable(16) %2) local_unnamed_addr #3 align 2 {
  %4 = getelementptr inbounds nuw i8, ptr %0, i64 16
  %5 = load i32, ptr %4, align 8, !tbaa !241
  %6 = add i32 %5, 1
  store i32 %6, ptr %4, align 8, !tbaa !241
  %7 = getelementptr inbounds nuw i8, ptr %0, i64 1168
  %8 = tail call noundef i32 @_ZN13sls_evaluator12update_pruneEP9func_declRK3mpz(ptr noundef nonnull align 8 dereferenceable(264) %7, ptr noundef %1, ptr noundef nonnull align 8 dereferenceable(16) %2)
  %.not = icmp eq i32 %8, 0
  %9 = getelementptr inbounds nuw i8, ptr %0, i64 1136
  %10 = load double, ptr %9, align 8
  %.0 = select i1 %.not, double 0xFFEFFFFFFFFFFFFF, double %10
  ret double %.0
}